target datalayout = "e-m:e-p270:32:32-p271:32:32-p272:64:64-i64:64-i128:128-f80:128-n8:16:32:64-S128"
target triple = "x86_64-unknown-linux-gnu"

%"class.icu_75::ICUResourceBundleFactory" = type { %"class.icu_75::LocaleKeyFactory.base", %"class.icu_75::UnicodeString" }
%"class.icu_75::LocaleKeyFactory.base" = type <{ %"class.icu_75::ICUServiceFactory", %"class.icu_75::UnicodeString", i32 }>
%"class.icu_75::ICUServiceFactory" = type { %"class.icu_75::UObject" }
%"class.icu_75::UObject" = type { ptr }
%"class.icu_75::UnicodeString" = type { %"class.icu_75::Replaceable", %"union.icu_75::UnicodeString::StackBufferOrFields" }
%"class.icu_75::Replaceable" = type { %"class.icu_75::UObject" }
%"union.icu_75::UnicodeString::StackBufferOrFields" = type { %struct.anon.0, [32 x i8] }
%struct.anon.0 = type { i16, i32, i32, ptr }

; Function Attrs: mustprogress nounwind uwtable
define internal noundef signext i8 @_ZL9U_SUCCESS10UErrorCode(i32 noundef %code) #0 {
entry:
  %code.addr = alloca i32, align 4
  store i32 %code, ptr %code.addr, align 4
  %0 = load i32, ptr %code.addr, align 4
  %cmp = icmp sle i32 %0, 0
  %conv = zext i1 %cmp to i8
  ret i8 %conv
}

; Function Attrs: mustprogress uwtable
define noundef ptr @_ZNK6icu_7524ICUResourceBundleFactory12handleCreateERKNS_6LocaleEiPKNS_10ICUServiceER10UErrorCode(ptr noundef nonnull align 8 dereferenceable(144) %this, ptr noundef nonnull align 8 dereferenceable(217) %loc, i32 noundef %0, ptr noundef %1, ptr noundef nonnull align 4 dereferenceable(4) %status) unnamed_addr #1 align 2 personality ptr @__gxx_personality_v0 {
entry:
  %retval = alloca ptr, align 8
  %this.addr = alloca ptr, align 8
  %loc.addr = alloca ptr, align 8
  %.addr = alloca i32, align 4
  %.addr1 = alloca ptr, align 8
  %status.addr = alloca ptr, align 8
  %pkg = alloca [20 x i8], align 16
  %length = alloca i32, align 4
  %saved-rvalue = alloca ptr, align 8
  %cleanup.cond = alloca i1, align 1
  %exn.slot = alloca ptr, align 8
  %ehselector.slot = alloca i32, align 4
  store ptr %this, ptr %this.addr, align 8
  store ptr %loc, ptr %loc.addr, align 8
  store i32 %0, ptr %.addr, align 4
  store ptr %1, ptr %.addr1, align 8
  store ptr %status, ptr %status.addr, align 8
  %this2 = load ptr, ptr %this.addr, align 8
  %2 = load ptr, ptr %status.addr, align 8
  %3 = load i32, ptr %2, align 4
  %call = call noundef signext i8 @_ZL9U_SUCCESS10UErrorCode(i32 noundef %3)
  %tobool = icmp ne i8 %call, 0
  br i1 %tobool, label %if.then, label %if.end7

if.then:                                          ; preds = %entry
  %_bundleName = getelementptr inbounds %"class.icu_75::ICUResourceBundleFactory", ptr %this2, i32 0, i32 1
  %arraydecay = getelementptr inbounds [20 x i8], ptr %pkg, i64 0, i64 0
  %call3 = call noundef i32 @_ZNK6icu_7513UnicodeString7extractEiiPciNS0_10EInvariantE(ptr noundef nonnull align 8 dereferenceable(64) %_bundleName, i32 noundef 0, i32 noundef 2147483647, ptr noundef %arraydecay, i32 noundef 20, i32 noundef 0)
  store i32 %call3, ptr %length, align 4
  %4 = load i32, ptr %length, align 4
  %cmp = icmp sge i32 %4, 20
  br i1 %cmp, label %if.then4, label %if.end

if.then4:                                         ; preds = %if.then
  store ptr null, ptr %retval, align 8
  br label %return

if.end:                                           ; preds = %if.then
  %call5 = call noundef ptr @_ZN6icu_757UMemorynwEm(i64 noundef 24) #7
  %new.isnull = icmp eq ptr %call5, null
  store i1 false, ptr %cleanup.cond, align 1
  br i1 %new.isnull, label %new.cont, label %new.notnull

new.notnull:                                      ; preds = %if.end
  store ptr %call5, ptr %saved-rvalue, align 8
  store i1 true, ptr %cleanup.cond, align 1
  %arraydecay6 = getelementptr inbounds [20 x i8], ptr %pkg, i64 0, i64 0
  %5 = load ptr, ptr %loc.addr, align 8
  %6 = load ptr, ptr %status.addr, align 8
  invoke void @_ZN6icu_7514ResourceBundleC1EPKcRKNS_6LocaleER10UErrorCode(ptr noundef nonnull align 8 dereferenceable(24) %call5, ptr noundef %arraydecay6, ptr noundef nonnull align 8 dereferenceable(217) %5, ptr noundef nonnull align 4 dereferenceable(4) %6)
          to label %invoke.cont unwind label %lpad

invoke.cont:                                      ; preds = %new.notnull
  br label %new.cont

new.cont:                                         ; preds = %invoke.cont, %if.end
  %7 = phi ptr [ %call5, %invoke.cont ], [ null, %if.end ]
  store ptr %7, ptr %retval, align 8
  br label %return

lpad:                                             ; preds = %new.notnull
  %8 = landingpad { ptr, i32 }
          cleanup
  %9 = extractvalue { ptr, i32 } %8, 0
  store ptr %9, ptr %exn.slot, align 8
  %10 = extractvalue { ptr, i32 } %8, 1
  store i32 %10, ptr %ehselector.slot, align 4
  %cleanup.is_active = load i1, ptr %cleanup.cond, align 1
  br i1 %cleanup.is_active, label %cleanup.action, label %cleanup.done

cleanup.action:                                   ; preds = %lpad
  %11 = load ptr, ptr %saved-rvalue, align 8
  call void @_ZN6icu_757UMemorydlEPv(ptr noundef %11) #7
  br label %cleanup.done

cleanup.done:                                     ; preds = %cleanup.action, %lpad
  br label %eh.resume

if.end7:                                          ; preds = %entry
  store ptr null, ptr %retval, align 8
  br label %return

return:                                           ; preds = %if.end7, %new.cont, %if.then4
  %12 = load ptr, ptr %retval, align 8
  ret ptr %12

eh.resume:                                        ; preds = %cleanup.done
  %exn = load ptr, ptr %exn.slot, align 8
  %sel = load i32, ptr %ehselector.slot, align 4
  %lpad.val = insertvalue { ptr, i32 } poison, ptr %exn, 0
  %lpad.val8 = insertvalue { ptr, i32 } %lpad.val, i32 %sel, 1
  resume { ptr, i32 } %lpad.val8
}