; Function Attrs: mustprogress uwtable
define noundef ptr @_ZNK6icu_7524ICUResourceBundleFactory12handleCreateERKNS_6LocaleEiPKNS_10ICUServiceER10UErrorCode(ptr noundef nonnull align 8 dereferenceable(144) %this, ptr noundef nonnull align 8 dereferenceable(217) %loc, i32 %0, ptr nocapture readnone %1, ptr noundef nonnull align 4 dereferenceable(4) %status) unnamed_addr #1 align 2 personality ptr @__gxx_personality_v0 {
entry:
  %pkg = alloca [20 x i8], align 16
  %2 = load i32, ptr %status, align 4
  %cmp.i = icmp sgt i32 %2, 0
  br i1 %cmp.i, label %return, label %if.then

if.then:                                          ; preds = %entry
  %_bundleName = getelementptr inbounds i8, ptr %this, i64 80
  %call3 = call noundef i32 @_ZNK6icu_7513UnicodeString7extractEiiPciNS0_10EInvariantE(ptr noundef nonnull align 8 dereferenceable(64) %_bundleName, i32 noundef 0, i32 noundef 2147483647, ptr noundef nonnull %pkg, i32 noundef 20, i32 noundef 0)
  %cmp = icmp sgt i32 %call3, 19
  br i1 %cmp, label %return, label %if.end

if.end:                                           ; preds = %if.then
  %call5 = call noundef ptr @_ZN6icu_757UMemorynwEm(i64 noundef 24) #9
  %new.isnull = icmp eq ptr %call5, null
  br i1 %new.isnull, label %return, label %new.notnull

new.notnull:                                      ; preds = %if.end
  invoke void @_ZN6icu_7514ResourceBundleC1EPKcRKNS_6LocaleER10UErrorCode(ptr noundef nonnull align 8 dereferenceable(24) %call5, ptr noundef nonnull %pkg, ptr noundef nonnull align 8 dereferenceable(217) %loc, ptr noundef nonnull align 4 dereferenceable(4) %status)
          to label %return unwind label %lpad

lpad:                                             ; preds = %new.notnull
  %3 = landingpad { ptr, i32 }
          cleanup
  call void @_ZN6icu_757UMemorydlEPv(ptr noundef nonnull %call5) #9
  resume { ptr, i32 } %3

return:                                           ; preds = %entry, %if.end, %new.notnull, %if.then
  %retval.0 = phi ptr [ null, %if.then ], [ null, %if.end ], [ %call5, %new.notnull ], [ null, %entry ]
  ret ptr %retval.0
}